/*
 * Intel ACPI Component Architecture
 * AML/ASL+ Disassembler version 20220331 (32-bit version)
 * Copyright (c) 2000 - 2022 Intel Corporation
 * 
 * Disassembly of xsdt.dat, Wed Oct 26 11:42:25 2022
 *
 * ACPI Data Table [XSDT]
 *
 * Format: [HexOffset DecimalOffset ByteLength]  FieldName : FieldValue (in hex)
 */

[000h 0000   4]                    Signature : "XSDT"    [Extended System Description Table]
[004h 0004   4]                 Table Length : 000000D4
[008h 0008   1]                     Revision : 01
[009h 0009   1]                     Checksum : C4
[00Ah 0010   6]                       Oem ID : "ALASKA"
[010h 0016   8]                 Oem Table ID : "A M I "
[018h 0024   4]                 Oem Revision : 01072009
[01Ch 0028   4]              Asl Compiler ID : "AMI "
[020h 0032   4]        Asl Compiler Revision : 01000013

[024h 0036   8]       ACPI Table Address   0 : 0000000098C0B000
[02Ch 0044   8]       ACPI Table Address   1 : 0000000098C0F000
[034h 0052   8]       ACPI Table Address   2 : 0000000098C0C000
[03Ch 0060   8]       ACPI Table Address   3 : 0000000098BCA000
[044h 0068   8]       ACPI Table Address   4 : 0000000098BC9000
[04Ch 0076   8]       ACPI Table Address   5 : 0000000098BC5000
[054h 0084   8]       ACPI Table Address   6 : 0000000098BC2000
[05Ch 0092   8]       ACPI Table Address   7 : 0000000098BC1000
[064h 0100   8]       ACPI Table Address   8 : 0000000098BC0000
[06Ch 0108   8]       ACPI Table Address   9 : 0000000098BBC000
[074h 0116   8]       ACPI Table Address  10 : 0000000098BBA000
[07Ch 0124   8]       ACPI Table Address  11 : 0000000098BB9000
[084h 0132   8]       ACPI Table Address  12 : 0000000098BB7000
[08Ch 0140   8]       ACPI Table Address  13 : 0000000098BB6000
[094h 0148   8]       ACPI Table Address  14 : 0000000098BB4000
[09Ch 0156   8]       ACPI Table Address  15 : 0000000098BB3000
[0A4h 0164   8]       ACPI Table Address  16 : 0000000098BB2000
[0ACh 0172   8]       ACPI Table Address  17 : 0000000098BB5000
[0B4h 0180   8]       ACPI Table Address  18 : 0000000098BAF000
[0BCh 0188   8]       ACPI Table Address  19 : 0000000098BB8000
[0C4h 0196   8]       ACPI Table Address  20 : 0000000098BAE000
[0CCh 0204   8]       ACPI Table Address  21 : 0000000098BAD000

Raw Table Data: Length 212 (0xD4)

    0000: 58 53 44 54 D4 00 00 00 01 C4 41 4C 41 53 4B 41  // XSDT......ALASKA
    0010: 41 20 4D 20 49 20 00 00 09 20 07 01 41 4D 49 20  // A M I ... ..AMI 
    0020: 13 00 00 01 00 B0 C0 98 00 00 00 00 00 F0 C0 98  // ................
    0030: 00 00 00 00 00 C0 C0 98 00 00 00 00 00 A0 BC 98  // ................
    0040: 00 00 00 00 00 90 BC 98 00 00 00 00 00 50 BC 98  // .............P..
    0050: 00 00 00 00 00 20 BC 98 00 00 00 00 00 10 BC 98  // ..... ..........
    0060: 00 00 00 00 00 00 BC 98 00 00 00 00 00 C0 BB 98  // ................
    0070: 00 00 00 00 00 A0 BB 98 00 00 00 00 00 90 BB 98  // ................
    0080: 00 00 00 00 00 70 BB 98 00 00 00 00 00 60 BB 98  // .....p.......`..
    0090: 00 00 00 00 00 40 BB 98 00 00 00 00 00 30 BB 98  // .....@.......0..
    00A0: 00 00 00 00 00 20 BB 98 00 00 00 00 00 50 BB 98  // ..... .......P..
    00B0: 00 00 00 00 00 F0 BA 98 00 00 00 00 00 80 BB 98  // ................
    00C0: 00 00 00 00 00 E0 BA 98 00 00 00 00 00 D0 BA 98  // ................
    00D0: 00 00 00 00                                      // ....
